; Function Attrs: nounwind uwtable
define internal range(i32 -1, 1) i32 @H5D__chunk_flush(ptr noundef %0) #0 {
  %2 = load i8, ptr @H5D_init_g, align 1, !tbaa !3, !range !7, !noundef !8
  %3 = trunc nuw i8 %2 to i1
  %4 = load i8, ptr @H5_libterm_g, align 1, !range !7
  %5 = trunc nuw i8 %4 to i1
  %6 = xor i1 %5, true
  %7 = select i1 %3, i1 true, i1 %6
  br i1 %7, label %8, label %._crit_edge.thread, !prof !9

8:                                                ; preds = %1
  %9 = getelementptr inbounds nuw i8, ptr %0, i64 48
  %10 = load ptr, ptr %9, align 8, !tbaa !10
  %11 = getelementptr inbounds nuw i8, ptr %10, i64 3360
  %12 = load ptr, ptr %11, align 8, !tbaa !213
  %.not13 = icmp eq ptr %12, null
  br i1 %.not13, label %._crit_edge.thread, label %.lr.ph

.lr.ph:                                           ; preds = %8, %.lr.ph
  %.01015 = phi i32 [ %spec.select, %.lr.ph ], [ 0, %8 ]
  %.01114 = phi ptr [ %14, %.lr.ph ], [ %12, %8 ]
  %13 = getelementptr inbounds nuw i8, ptr %.01114, i64 320
  %14 = load ptr, ptr %13, align 8, !tbaa !214
  %15 = tail call fastcc i32 @H5D__chunk_flush_entry(ptr noundef %0, ptr noundef nonnull %.01114, i1 noundef zeroext false)
  %16 = lshr i32 %15, 31
  %spec.select = add i32 %16, %.01015
  %.not = icmp eq ptr %14, null
  br i1 %.not, label %._crit_edge, label %.lr.ph, !llvm.loop !215

._crit_edge:                                      ; preds = %.lr.ph
  %17 = icmp eq i32 %spec.select, 0
  br i1 %17, label %._crit_edge.thread, label %18

18:                                               ; preds = %._crit_edge
  %19 = load i64, ptr @H5E_DATASET_g, align 8, !tbaa !21
  %20 = load i64, ptr @H5E_CANTFLUSH_g, align 8, !tbaa !21
  %21 = tail call i32 (ptr, ptr, i32, i64, i64, ptr, ...) @H5E_printf_stack(ptr noundef nonnull @.str.1, ptr noundef nonnull @__func__.H5D__chunk_flush, i32 noundef 3413, i64 noundef %19, i64 noundef %20, ptr noundef nonnull @.str.47) #15
  br label %._crit_edge.thread

._crit_edge.thread:                               ; preds = %8, %18, %._crit_edge, %1
  %.0 = phi i32 [ -1, %18 ], [ 0, %._crit_edge ], [ 0, %1 ], [ 0, %8 ]
  ret i32 %.0
}